target datalayout = "e-m:e-p270:32:32-p271:32:32-p272:64:64-i64:64-i128:128-f80:128-n8:16:32:64-S128"
target triple = "x86_64-pc-linux-gnu"

%struct.If_Man_t_ = type { ptr, ptr, ptr, ptr, ptr, ptr, ptr, ptr, [5 x i32], i32, float, float, float, float, i32, float, i32, i32, [4 x ptr], ptr, i32, i32, i32, ptr, [3 x [32 x i32]], i32, i32, i32, ptr, ptr, ptr, ptr, ptr, ptr, ptr, i32, i32, i32, [16 x i32], i32, i32, i32, i32, ptr, ptr, ptr, ptr, ptr, i32, i32, [32 x i32], [32 x i32], i32, i32, i32, i32, ptr, [16 x ptr], [16 x ptr], [16 x ptr], [16 x ptr], [16 x ptr], [16 x ptr], [16 x ptr], ptr, ptr, ptr, ptr, [32 x i8], i32, i32, i32, [6 x i64], [2 x i32], [2 x i32], ptr, [15 x i32], ptr, ptr, ptr, [16 x i32], ptr, ptr, ptr, ptr, [2 x i32], [2 x i32], [2 x ptr], ptr }
%struct.Vec_Ptr_t_ = type { i32, i32, ptr }
%struct.If_Obj_t_ = type { i32, i32, i32, i32, i32, i32, ptr, ptr, ptr, float, float, float, %union.anon, ptr, %struct.If_Cut_t_ }
%union.anon = type { ptr }
%struct.If_Cut_t_ = type <{ float, float, float, float, i32, i32, i32, i48, [0 x i32] }>
%struct.Vec_Int_t_ = type { i32, i32, ptr }
%struct.If_Par_t_ = type { i32, i32, i32, i32, i32, i32, float, float, i32, i32, i32, i32, i32, i32, i32, i32, i32, i32, i32, i32, i32, i32, i32, i32, i32, i32, i32, i32, i32, i32, i32, i32, i32, i32, i32, i32, i32, i32, i32, i32, i32, i32, i32, i32, i32, i32, i32, i32, i32, ptr, float, i32, i32, i32, i32, i32, i32, i32, i32, i32, i32, i32, i32, i32, i32, float, float, float, ptr, ptr, ptr, ptr, ptr, ptr, ptr, ptr, ptr }
%struct.If_LibLut_t_ = type { ptr, i32, i32, [33 x float], [33 x [33 x float]] }

; Function Attrs: nounwind uwtable
define internal ptr @Vec_PtrEntry(ptr noundef %0, i32 noundef %1) #0 {
  %3 = alloca ptr, align 8
  %4 = alloca i32, align 4
  store ptr %0, ptr %3, align 8
  store i32 %1, ptr %4, align 4
  %5 = load ptr, ptr %3, align 8
  %6 = getelementptr inbounds %struct.Vec_Ptr_t_, ptr %5, i32 0, i32 2
  %7 = load ptr, ptr %6, align 8
  %8 = load i32, ptr %4, align 4
  %9 = sext i32 %8 to i64
  %10 = getelementptr inbounds ptr, ptr %7, i64 %9
  %11 = load ptr, ptr %10, align 8
  ret ptr %11
}

; Function Attrs: nounwind uwtable
define internal ptr @If_ManObj(ptr noundef %0, i32 noundef %1) #0 {
  %3 = alloca ptr, align 8
  %4 = alloca i32, align 4
  store ptr %0, ptr %3, align 8
  store i32 %1, ptr %4, align 4
  %5 = load ptr, ptr %3, align 8
  %6 = getelementptr inbounds %struct.If_Man_t_, ptr %5, i32 0, i32 5
  %7 = load ptr, ptr %6, align 8
  %8 = load i32, ptr %4, align 4
  %9 = call ptr @Vec_PtrEntry(ptr noundef %7, i32 noundef %8)
  ret ptr %9
}

; Function Attrs: nounwind uwtable
define internal float @If_CutLutArea(ptr noundef %0, ptr noundef %1) #0 {
  %3 = alloca ptr, align 8
  %4 = alloca ptr, align 8
  store ptr %0, ptr %3, align 8
  store ptr %1, ptr %4, align 8
  %5 = load ptr, ptr %4, align 8
  %6 = getelementptr inbounds %struct.If_Cut_t_, ptr %5, i32 0, i32 7
  %7 = load i64, ptr %6, align 4
  %8 = lshr i64 %7, 15
  %9 = and i64 %8, 1
  %10 = trunc i64 %9 to i32
  %11 = icmp ne i32 %10, 0
  br i1 %11, label %12, label %19

12:                                               ; preds = %2
  %13 = load ptr, ptr %3, align 8
  %14 = getelementptr inbounds %struct.If_Man_t_, ptr %13, i32 0, i32 1
  %15 = load ptr, ptr %14, align 8
  %16 = getelementptr inbounds %struct.If_Par_t_, ptr %15, i32 0, i32 11
  %17 = load i32, ptr %16, align 4
  %18 = sitofp i32 %17 to float
  br label %62

19:                                               ; preds = %2
  %20 = load ptr, ptr %4, align 8
  %21 = getelementptr inbounds %struct.If_Cut_t_, ptr %20, i32 0, i32 7
  %22 = load i64, ptr %21, align 4
  %23 = lshr i64 %22, 13
  %24 = and i64 %23, 1
  %25 = trunc i64 %24 to i32
  %26 = icmp ne i32 %25, 0
  br i1 %26, label %27, label %34

27:                                               ; preds = %19
  %28 = load ptr, ptr %4, align 8
  %29 = getelementptr inbounds %struct.If_Cut_t_, ptr %28, i32 0, i32 7
  %30 = load i64, ptr %29, align 4
  %31 = and i64 %30, 4095
  %32 = trunc i64 %31 to i32
  %33 = uitofp i32 %32 to float
  br label %60

34:                                               ; preds = %19
  %35 = load ptr, ptr %3, align 8
  %36 = getelementptr inbounds %struct.If_Man_t_, ptr %35, i32 0, i32 1
  %37 = load ptr, ptr %36, align 8
  %38 = getelementptr inbounds %struct.If_Par_t_, ptr %37, i32 0, i32 68
  %39 = load ptr, ptr %38, align 8
  %40 = icmp ne ptr %39, null
  br i1 %40, label %41, label %57

41:                                               ; preds = %34
  %42 = load ptr, ptr %3, align 8
  %43 = getelementptr inbounds %struct.If_Man_t_, ptr %42, i32 0, i32 1
  %44 = load ptr, ptr %43, align 8
  %45 = getelementptr inbounds %struct.If_Par_t_, ptr %44, i32 0, i32 68
  %46 = load ptr, ptr %45, align 8
  %47 = getelementptr inbounds %struct.If_LibLut_t_, ptr %46, i32 0, i32 3
  %48 = load ptr, ptr %4, align 8
  %49 = getelementptr inbounds %struct.If_Cut_t_, ptr %48, i32 0, i32 7
  %50 = load i64, ptr %49, align 4
  %51 = lshr i64 %50, 24
  %52 = and i64 %51, 255
  %53 = trunc i64 %52 to i32
  %54 = zext i32 %53 to i64
  %55 = getelementptr inbounds [33 x float], ptr %47, i64 0, i64 %54
  %56 = load float, ptr %55, align 4
  br label %58

57:                                               ; preds = %34
  br label %58

58:                                               ; preds = %57, %41
  %59 = phi float [ %56, %41 ], [ 1.000000e+00, %57 ]
  br label %60

60:                                               ; preds = %58, %27
  %61 = phi float [ %33, %27 ], [ %59, %58 ]
  br label %62

62:                                               ; preds = %60, %12
  %63 = phi float [ %18, %12 ], [ %61, %60 ]
  ret float %63
}

; Function Attrs: nounwind uwtable
define internal ptr @If_ObjCutBest(ptr noundef %0) #0 {
  %2 = alloca ptr, align 8
  store ptr %0, ptr %2, align 8
  %3 = load ptr, ptr %2, align 8
  %4 = getelementptr inbounds %struct.If_Obj_t_, ptr %3, i32 0, i32 14
  ret ptr %4
}

; Function Attrs: nounwind uwtable
define internal i32 @If_ObjIsConst1(ptr noundef %0) #0 {
  %2 = alloca ptr, align 8
  store ptr %0, ptr %2, align 8
  %3 = load ptr, ptr %2, align 8
  %4 = load i32, ptr %3, align 8
  %5 = and i32 %4, 15
  %6 = icmp eq i32 %5, 1
  %7 = zext i1 %6 to i32
  ret i32 %7
}

; Function Attrs: nounwind uwtable
define internal i32 @If_ObjIsCi(ptr noundef %0) #0 {
  %2 = alloca ptr, align 8
  store ptr %0, ptr %2, align 8
  %3 = load ptr, ptr %2, align 8
  %4 = load i32, ptr %3, align 8
  %5 = and i32 %4, 15
  %6 = icmp eq i32 %5, 2
  %7 = zext i1 %6 to i32
  ret i32 %7
}

; Function Attrs: nounwind uwtable
define float @If_ManMarkMapping_rec(ptr noundef %0, ptr noundef %1) #0 {
  %3 = alloca float, align 4
  %4 = alloca ptr, align 8
  %5 = alloca ptr, align 8
  %6 = alloca ptr, align 8
  %7 = alloca ptr, align 8
  %8 = alloca ptr, align 8
  %9 = alloca float, align 4
  %10 = alloca i32, align 4
  store ptr %0, ptr %4, align 8
  store ptr %1, ptr %5, align 8
  %11 = load ptr, ptr %4, align 8
  %12 = getelementptr inbounds %struct.If_Man_t_, ptr %11, i32 0, i32 23
  %13 = load ptr, ptr %12, align 8
  %14 = icmp ne ptr %13, null
  br i1 %14, label %15, label %21

15:                                               ; preds = %2
  %16 = load ptr, ptr %4, align 8
  %17 = getelementptr inbounds %struct.If_Man_t_, ptr %16, i32 0, i32 23
  %18 = load ptr, ptr %17, align 8
  %19 = getelementptr inbounds %struct.Vec_Int_t_, ptr %18, i32 0, i32 2
  %20 = load ptr, ptr %19, align 8
  br label %22

21:                                               ; preds = %2
  br label %22

22:                                               ; preds = %21, %15
  %23 = phi ptr [ %20, %15 ], [ null, %21 ]
  store ptr %23, ptr %8, align 8
  %24 = load ptr, ptr %5, align 8
  %25 = getelementptr inbounds %struct.If_Obj_t_, ptr %24, i32 0, i32 3
  %26 = load i32, ptr %25, align 4
  %27 = add nsw i32 %26, 1
  store i32 %27, ptr %25, align 4
  %28 = icmp ne i32 %26, 0
  br i1 %28, label %37, label %29

29:                                               ; preds = %22
  %30 = load ptr, ptr %5, align 8
  %31 = call i32 @If_ObjIsCi(ptr noundef %30)
  %32 = icmp ne i32 %31, 0
  br i1 %32, label %37, label %33

33:                                               ; preds = %29
  %34 = load ptr, ptr %5, align 8
  %35 = call i32 @If_ObjIsConst1(ptr noundef %34)
  %36 = icmp ne i32 %35, 0
  br i1 %36, label %37, label %38

37:                                               ; preds = %33, %29, %22
  store float 0.000000e+00, ptr %3, align 4
  br label %106

38:                                               ; preds = %33
  %39 = load ptr, ptr %5, align 8
  %40 = call ptr @If_ObjCutBest(ptr noundef %39)
  store ptr %40, ptr %7, align 8
  %41 = load ptr, ptr %7, align 8
  %42 = getelementptr inbounds %struct.If_Cut_t_, ptr %41, i32 0, i32 7
  %43 = load i64, ptr %42, align 4
  %44 = lshr i64 %43, 24
  %45 = and i64 %44, 255
  %46 = trunc i64 %45 to i32
  %47 = load ptr, ptr %4, align 8
  %48 = getelementptr inbounds %struct.If_Man_t_, ptr %47, i32 0, i32 14
  %49 = load i32, ptr %48, align 8
  %50 = add nsw i32 %49, %46
  store i32 %50, ptr %48, align 8
  %51 = load ptr, ptr %4, align 8
  %52 = load ptr, ptr %7, align 8
  %53 = call float @If_CutLutArea(ptr noundef %51, ptr noundef %52)
  store float %53, ptr %9, align 4
  store i32 0, ptr %10, align 4
  br label %54

54:                                               ; preds = %101, %38
  %55 = load i32, ptr %10, align 4
  %56 = load ptr, ptr %7, align 8
  %57 = getelementptr inbounds %struct.If_Cut_t_, ptr %56, i32 0, i32 7
  %58 = load i64, ptr %57, align 4
  %59 = lshr i64 %58, 24
  %60 = and i64 %59, 255
  %61 = trunc i64 %60 to i32
  %62 = icmp slt i32 %55, %61
  br i1 %62, label %63, label %73

63:                                               ; preds = %54
  %64 = load ptr, ptr %4, align 8
  %65 = load ptr, ptr %7, align 8
  %66 = getelementptr inbounds %struct.If_Cut_t_, ptr %65, i32 0, i32 8
  %67 = load i32, ptr %10, align 4
  %68 = sext i32 %67 to i64
  %69 = getelementptr inbounds [0 x i32], ptr %66, i64 0, i64 %68
  %70 = load i32, ptr %69, align 4
  %71 = call ptr @If_ManObj(ptr noundef %64, i32 noundef %70)
  store ptr %71, ptr %6, align 8
  %72 = icmp ne ptr %71, null
  br label %73

73:                                               ; preds = %63, %54
  %74 = phi i1 [ false, %54 ], [ %72, %63 ]
  br i1 %74, label %75, label %104

75:                                               ; preds = %73
  %76 = load ptr, ptr %8, align 8
  %77 = icmp ne ptr %76, null
  br i1 %77, label %78, label %87

78:                                               ; preds = %75
  %79 = load ptr, ptr %8, align 8
  %80 = load ptr, ptr %6, align 8
  %81 = getelementptr inbounds %struct.If_Obj_t_, ptr %80, i32 0, i32 1
  %82 = load i32, ptr %81, align 4
  %83 = sext i32 %82 to i64
  %84 = getelementptr inbounds float, ptr %79, i64 %83
  %85 = load float, ptr %84, align 4
  %86 = fpext float %85 to double
  br label %88

87:                                               ; preds = %75
  br label %88

88:                                               ; preds = %87, %78
  %89 = phi double [ %86, %78 ], [ 0.000000e+00, %87 ]
  %90 = load ptr, ptr %4, align 8
  %91 = getelementptr inbounds %struct.If_Man_t_, ptr %90, i32 0, i32 15
  %92 = load float, ptr %91, align 4
  %93 = fpext float %92 to double
  %94 = fadd double %93, %89
  %95 = fptrunc double %94 to float
  store float %95, ptr %91, align 4
  %96 = load ptr, ptr %4, align 8
  %97 = load ptr, ptr %6, align 8
  %98 = call float @If_ManMarkMapping_rec(ptr noundef %96, ptr noundef %97)
  %99 = load float, ptr %9, align 4
  %100 = fadd float %99, %98
  store float %100, ptr %9, align 4
  br label %101

101:                                              ; preds = %88
  %102 = load i32, ptr %10, align 4
  %103 = add nsw i32 %102, 1
  store i32 %103, ptr %10, align 4
  br label %54, !llvm.loop !16

104:                                              ; preds = %73
  %105 = load float, ptr %9, align 4
  store float %105, ptr %3, align 4
  br label %106

106:                                              ; preds = %104, %37
  %107 = load float, ptr %3, align 4
  ret float %107
}