; Function Attrs: nofree nosync nounwind memory(readwrite, inaccessiblemem: none) uwtable
define float @If_ManMarkMapping_rec(ptr noundef captures(none) %0, ptr noundef captures(none) %1) local_unnamed_addr #4 {
  %3 = getelementptr inbounds nuw i8, ptr %0, i64 176
  %4 = load ptr, ptr %3, align 8
  %.not = icmp eq ptr %4, null
  br i1 %.not, label %9, label %5

5:                                                ; preds = %2
  %6 = getelementptr inbounds nuw i8, ptr %4, i64 8
  %7 = load ptr, ptr %6, align 8
  %8 = freeze ptr %7
  br label %9

9:                                                ; preds = %2, %5
  %.fr = phi ptr [ %8, %5 ], [ null, %2 ]
  %10 = getelementptr inbounds nuw i8, ptr %1, i64 12
  %11 = load i32, ptr %10, align 4
  %12 = add nsw i32 %11, 1
  store i32 %12, ptr %10, align 4
  %.not29 = icmp eq i32 %11, 0
  br i1 %.not29, label %13, label %.critedge

13:                                               ; preds = %9
  %.val = load i32, ptr %1, align 8
  %14 = and i32 %.val, 15
  %.off = add nsw i32 %14, -1
  %switch = icmp ult i32 %.off, 2
  br i1 %switch, label %.critedge, label %15

15:                                               ; preds = %13
  %16 = getelementptr inbounds nuw i8, ptr %1, i64 108
  %17 = load i64, ptr %16, align 4
  %18 = trunc i64 %17 to i32
  %19 = lshr i32 %18, 24
  %20 = getelementptr inbounds nuw i8, ptr %0, i64 104
  %21 = load i32, ptr %20, align 8
  %22 = add nsw i32 %19, %21
  store i32 %22, ptr %20, align 8
  %.val35 = load i64, ptr %16, align 4
  %23 = and i64 %.val35, 32768
  %.not.i = icmp eq i64 %23, 0
  br i1 %.not.i, label %30, label %24

24:                                               ; preds = %15
  %25 = getelementptr inbounds nuw i8, ptr %0, i64 8
  %26 = load ptr, ptr %25, align 8
  %27 = getelementptr inbounds nuw i8, ptr %26, i64 44
  %28 = load i32, ptr %27, align 4
  %29 = sitofp i32 %28 to float
  br label %If_CutLutArea.exit

30:                                               ; preds = %15
  %31 = and i64 %.val35, 8192
  %.not7.i = icmp eq i64 %31, 0
  br i1 %.not7.i, label %36, label %32

32:                                               ; preds = %30
  %33 = trunc i64 %.val35 to i32
  %34 = and i32 %33, 4095
  %35 = uitofp nneg i32 %34 to float
  br label %If_CutLutArea.exit

36:                                               ; preds = %30
  %37 = getelementptr inbounds nuw i8, ptr %0, i64 8
  %38 = load ptr, ptr %37, align 8
  %39 = getelementptr inbounds nuw i8, ptr %38, i64 280
  %40 = load ptr, ptr %39, align 8
  %.not8.i = icmp eq ptr %40, null
  br i1 %.not8.i, label %If_CutLutArea.exit, label %41

41:                                               ; preds = %36
  %42 = getelementptr inbounds nuw i8, ptr %40, i64 16
  %43 = lshr i64 %.val35, 24
  %44 = and i64 %43, 255
  %45 = getelementptr inbounds nuw [33 x float], ptr %42, i64 0, i64 %44
  %46 = load float, ptr %45, align 4
  br label %If_CutLutArea.exit

If_CutLutArea.exit:                               ; preds = %24, %32, %36, %41
  %47 = phi float [ %29, %24 ], [ %35, %32 ], [ %46, %41 ], [ 1.000000e+00, %36 ]
  %48 = getelementptr inbounds nuw i8, ptr %1, i64 116
  %49 = and i64 %.val35, 4278190080
  %.not44 = icmp eq i64 %49, 0
  br i1 %.not44, label %.critedge, label %.lr.ph

.lr.ph:                                           ; preds = %If_CutLutArea.exit
  %50 = getelementptr i8, ptr %0, i64 40
  %.not33 = icmp eq ptr %.fr, null
  %51 = getelementptr inbounds nuw i8, ptr %0, i64 108
  br i1 %.not33, label %.lr.ph.split.us, label %.lr.ph.split

.lr.ph.split.us:                                  ; preds = %.lr.ph, %58
  %indvars.iv48 = phi i64 [ %indvars.iv.next49, %58 ], [ 0, %.lr.ph ]
  %.02439.us = phi float [ %62, %58 ], [ %47, %.lr.ph ]
  %52 = getelementptr inbounds nuw [0 x i32], ptr %48, i64 0, i64 %indvars.iv48
  %53 = load i32, ptr %52, align 4
  %.val36.us = load ptr, ptr %50, align 8
  %54 = getelementptr i8, ptr %.val36.us, i64 8
  %.val36.val.us = load ptr, ptr %54, align 8
  %55 = sext i32 %53 to i64
  %56 = getelementptr inbounds ptr, ptr %.val36.val.us, i64 %55
  %57 = load ptr, ptr %56, align 8
  %.not32.us = icmp eq ptr %57, null
  br i1 %.not32.us, label %.critedge, label %58

58:                                               ; preds = %.lr.ph.split.us
  %59 = load float, ptr %51, align 4
  %60 = fadd float %59, 0.000000e+00
  store float %60, ptr %51, align 4
  %61 = tail call float @If_ManMarkMapping_rec(ptr noundef nonnull %0, ptr noundef nonnull %57)
  %62 = fadd float %.02439.us, %61
  %indvars.iv.next49 = add nuw nsw i64 %indvars.iv48, 1
  %63 = load i64, ptr %16, align 4
  %64 = lshr i64 %63, 24
  %65 = and i64 %64, 255
  %66 = icmp samesign ult i64 %indvars.iv.next49, %65
  br i1 %66, label %.lr.ph.split.us, label %.critedge, !llvm.loop !16

.lr.ph.split:                                     ; preds = %.lr.ph, %73
  %indvars.iv = phi i64 [ %indvars.iv.next, %73 ], [ 0, %.lr.ph ]
  %.02439 = phi float [ %82, %73 ], [ %47, %.lr.ph ]
  %67 = getelementptr inbounds nuw [0 x i32], ptr %48, i64 0, i64 %indvars.iv
  %68 = load i32, ptr %67, align 4
  %.val36 = load ptr, ptr %50, align 8
  %69 = getelementptr i8, ptr %.val36, i64 8
  %.val36.val = load ptr, ptr %69, align 8
  %70 = sext i32 %68 to i64
  %71 = getelementptr inbounds ptr, ptr %.val36.val, i64 %70
  %72 = load ptr, ptr %71, align 8
  %.not32 = icmp eq ptr %72, null
  br i1 %.not32, label %.critedge, label %73

73:                                               ; preds = %.lr.ph.split
  %74 = getelementptr inbounds nuw i8, ptr %72, i64 4
  %75 = load i32, ptr %74, align 4
  %76 = sext i32 %75 to i64
  %77 = getelementptr inbounds float, ptr %.fr, i64 %76
  %78 = load float, ptr %77, align 4
  %79 = load float, ptr %51, align 4
  %80 = fadd float %78, %79
  store float %80, ptr %51, align 4
  %81 = tail call float @If_ManMarkMapping_rec(ptr noundef nonnull %0, ptr noundef nonnull %72)
  %82 = fadd float %.02439, %81
  %indvars.iv.next = add nuw nsw i64 %indvars.iv, 1
  %83 = load i64, ptr %16, align 4
  %84 = lshr i64 %83, 24
  %85 = and i64 %84, 255
  %86 = icmp samesign ult i64 %indvars.iv.next, %85
  br i1 %86, label %.lr.ph.split, label %.critedge, !llvm.loop !16

.critedge:                                        ; preds = %73, %.lr.ph.split, %58, %.lr.ph.split.us, %If_CutLutArea.exit, %13, %9
  %.025 = phi float [ 0.000000e+00, %9 ], [ 0.000000e+00, %13 ], [ %47, %If_CutLutArea.exit ], [ %62, %58 ], [ %.02439.us, %.lr.ph.split.us ], [ %82, %73 ], [ %.02439, %.lr.ph.split ]
  ret float %.025
}